target datalayout = "e-m:e-p270:32:32-p271:32:32-p272:64:64-i64:64-i128:128-f80:128-n8:16:32:64-S128"
target triple = "x86_64-pc-linux-gnu"

%struct._GdkEventCrossing = type { i32, ptr, i8, ptr, i32, double, double, double, double, i32, i32, i32, i32 }

@.str.242 = private unnamed_addr constant [20 x i8] c"panel-handle-bottom\00", align 1

; Function Attrs: nounwind uwtable
define internal i32 @_panel_handle_cursor_callback(ptr noundef %0, ptr noundef %1, ptr noundef %2) #0 {
  %4 = alloca ptr, align 8
  %5 = alloca ptr, align 8
  %6 = alloca ptr, align 8
  store ptr %0, ptr %4, align 8, !tbaa !6
  store ptr %1, ptr %5, align 8, !tbaa !157
  store ptr %2, ptr %6, align 8, !tbaa !99
  %7 = load ptr, ptr %4, align 8, !tbaa !6
  %8 = call ptr @gtk_widget_get_name(ptr noundef %7)
  %9 = call i32 @strcmp(ptr noundef %8, ptr noundef @.str.242) #18
  %10 = icmp eq i32 %9, 0
  br i1 %10, label %11, label %17

11:                                               ; preds = %3
  %12 = load ptr, ptr %5, align 8, !tbaa !157
  %13 = getelementptr inbounds nuw %struct._GdkEventCrossing, ptr %12, i32 0, i32 0
  %14 = load i32, ptr %13, align 8, !tbaa !318
  %15 = icmp eq i32 %14, 10
  %16 = select i1 %15, i32 116, i32 68
  call void @dt_control_change_cursor(i32 noundef %16)
  br label %23

17:                                               ; preds = %3
  %18 = load ptr, ptr %5, align 8, !tbaa !157
  %19 = getelementptr inbounds nuw %struct._GdkEventCrossing, ptr %18, i32 0, i32 0
  %20 = load i32, ptr %19, align 8, !tbaa !318
  %21 = icmp eq i32 %20, 10
  %22 = select i1 %21, i32 108, i32 68
  call void @dt_control_change_cursor(i32 noundef %22)
  br label %23

23:                                               ; preds = %17, %11
  ret i32 1
}