; Function Attrs: nounwind uwtable
define internal noundef i32 @_panel_handle_cursor_callback(ptr noundef %0, ptr noundef readonly captures(none) %1, ptr readnone captures(none) %2) #0 {
  %4 = tail call ptr @gtk_widget_get_name(ptr noundef %0) #18
  %5 = tail call i32 @strcmp(ptr noundef nonnull dereferenceable(1) %4, ptr noundef nonnull dereferenceable(20) @.str.242) #20
  %6 = icmp eq i32 %5, 0
  %7 = load i32, ptr %1, align 8, !tbaa !245
  %8 = icmp eq i32 %7, 10
  %. = select i1 %6, i32 116, i32 108
  %9 = select i1 %8, i32 %., i32 68
  tail call void @dt_control_change_cursor(i32 noundef %9) #18
  ret i32 1
}